target datalayout = "e-m:e-p270:32:32-p271:32:32-p272:64:64-i64:64-i128:128-f80:128-n8:16:32:64-S128"
target triple = "x86_64-pc-linux-gnu"

%"union.pxrInternal_v0_24__pxrReserved__::pxr_half::half::uif" = type { i32 }
%"class.pxrInternal_v0_24__pxrReserved__::pxr_half::half" = type { i16 }
%"class.pxrInternal_v0_24__pxrReserved__::GfVec4h" = type { [4 x %"class.pxrInternal_v0_24__pxrReserved__::pxr_half::half"] }

@_ZN32pxrInternal_v0_24__pxrReserved__8pxr_half4half8_toFloatE = external global [65536 x %"union.pxrInternal_v0_24__pxrReserved__::pxr_half::half::uif"], align 16
@_ZN32pxrInternal_v0_24__pxrReserved__8pxr_half4half5_eLutE = external constant [512 x i16], align 16

; Function Attrs: mustprogress nounwind uwtable
define linkonce_odr void @_ZN32pxrInternal_v0_24__pxrReserved__7GfVec4hC2ENS_8pxr_half4halfES2_S2_S2_(ptr noundef nonnull align 2 dereferenceable(8) %0, i16 %1, i16 %2, i16 %3, i16 %4) unnamed_addr #0 comdat align 2 {
  %6 = alloca %"class.pxrInternal_v0_24__pxrReserved__::pxr_half::half", align 2
  %7 = alloca %"class.pxrInternal_v0_24__pxrReserved__::pxr_half::half", align 2
  %8 = alloca %"class.pxrInternal_v0_24__pxrReserved__::pxr_half::half", align 2
  %9 = alloca %"class.pxrInternal_v0_24__pxrReserved__::pxr_half::half", align 2
  %10 = alloca ptr, align 8
  %11 = getelementptr inbounds nuw %"class.pxrInternal_v0_24__pxrReserved__::pxr_half::half", ptr %6, i32 0, i32 0
  store i16 %1, ptr %11, align 2
  %12 = getelementptr inbounds nuw %"class.pxrInternal_v0_24__pxrReserved__::pxr_half::half", ptr %7, i32 0, i32 0
  store i16 %2, ptr %12, align 2
  %13 = getelementptr inbounds nuw %"class.pxrInternal_v0_24__pxrReserved__::pxr_half::half", ptr %8, i32 0, i32 0
  store i16 %3, ptr %13, align 2
  %14 = getelementptr inbounds nuw %"class.pxrInternal_v0_24__pxrReserved__::pxr_half::half", ptr %9, i32 0, i32 0
  store i16 %4, ptr %14, align 2
  store ptr %0, ptr %10, align 8
  %15 = load ptr, ptr %10, align 8
  %16 = getelementptr inbounds nuw %"class.pxrInternal_v0_24__pxrReserved__::GfVec4h", ptr %15, i32 0, i32 0
  call void @llvm.memcpy.p0.p0.i64(ptr align 2 %16, ptr align 2 %6, i64 2, i1 false)
  %17 = getelementptr inbounds %"class.pxrInternal_v0_24__pxrReserved__::pxr_half::half", ptr %16, i64 1
  call void @llvm.memcpy.p0.p0.i64(ptr align 2 %17, ptr align 2 %7, i64 2, i1 false)
  %18 = getelementptr inbounds %"class.pxrInternal_v0_24__pxrReserved__::pxr_half::half", ptr %16, i64 2
  call void @llvm.memcpy.p0.p0.i64(ptr align 2 %18, ptr align 2 %8, i64 2, i1 false)
  %19 = getelementptr inbounds %"class.pxrInternal_v0_24__pxrReserved__::pxr_half::half", ptr %16, i64 3
  call void @llvm.memcpy.p0.p0.i64(ptr align 2 %19, ptr align 2 %9, i64 2, i1 false)
  ret void
}

; Function Attrs: mustprogress uwtable
define linkonce_odr void @_ZN32pxrInternal_v0_24__pxrReserved__8pxr_half4halfC2Ef(ptr noundef nonnull align 2 dereferenceable(2) %0, float noundef %1) unnamed_addr #1 comdat align 2 {
  %3 = alloca ptr, align 8
  %4 = alloca float, align 4
  %5 = alloca %"union.pxrInternal_v0_24__pxrReserved__::pxr_half::half::uif", align 4
  %6 = alloca i32, align 4
  %7 = alloca i32, align 4
  store ptr %0, ptr %3, align 8
  store float %1, ptr %4, align 4
  %8 = load ptr, ptr %3, align 8
  %9 = load float, ptr %4, align 4
  store float %9, ptr %5, align 4
  %10 = load float, ptr %4, align 4
  %11 = fcmp oeq float %10, 0.000000e+00
  br i1 %11, label %12, label %17

12:                                               ; preds = %2
  %13 = load i32, ptr %5, align 4
  %14 = lshr i32 %13, 16
  %15 = trunc i32 %14 to i16
  %16 = getelementptr inbounds nuw %"class.pxrInternal_v0_24__pxrReserved__::pxr_half::half", ptr %8, i32 0, i32 0
  store i16 %15, ptr %16, align 2
  br label %47

17:                                               ; preds = %2
  %18 = load i32, ptr %5, align 4
  %19 = lshr i32 %18, 23
  %20 = and i32 %19, 511
  store i32 %20, ptr %6, align 4
  %21 = load i32, ptr %6, align 4
  %22 = sext i32 %21 to i64
  %23 = getelementptr inbounds [512 x i16], ptr @_ZN32pxrInternal_v0_24__pxrReserved__8pxr_half4half5_eLutE, i64 0, i64 %22
  %24 = load i16, ptr %23, align 2
  %25 = zext i16 %24 to i32
  store i32 %25, ptr %6, align 4
  %26 = load i32, ptr %6, align 4
  %27 = icmp ne i32 %26, 0
  br i1 %27, label %28, label %42

28:                                               ; preds = %17
  %29 = load i32, ptr %5, align 4
  %30 = and i32 %29, 8388607
  store i32 %30, ptr %7, align 4
  %31 = load i32, ptr %6, align 4
  %32 = load i32, ptr %7, align 4
  %33 = add nsw i32 %32, 4095
  %34 = load i32, ptr %7, align 4
  %35 = ashr i32 %34, 13
  %36 = and i32 %35, 1
  %37 = add nsw i32 %33, %36
  %38 = ashr i32 %37, 13
  %39 = add nsw i32 %31, %38
  %40 = trunc i32 %39 to i16
  %41 = getelementptr inbounds nuw %"class.pxrInternal_v0_24__pxrReserved__::pxr_half::half", ptr %8, i32 0, i32 0
  store i16 %40, ptr %41, align 2
  br label %46

42:                                               ; preds = %17
  %43 = load i32, ptr %5, align 4
  %44 = call noundef signext i16 @_ZN32pxrInternal_v0_24__pxrReserved__8pxr_half4half7convertEi(i32 noundef %43)
  %45 = getelementptr inbounds nuw %"class.pxrInternal_v0_24__pxrReserved__::pxr_half::half", ptr %8, i32 0, i32 0
  store i16 %44, ptr %45, align 2
  br label %46

46:                                               ; preds = %42, %28
  br label %47

47:                                               ; preds = %46, %12
  ret void
}

; Function Attrs: mustprogress nounwind uwtable
define linkonce_odr noundef double @_ZSt3powIfdEN9__gnu_cxx9__promoteIDTplcvNS1_IT_Xsr3std12__is_integerIS2_EE7__valueEE6__typeELi0EcvNS1_IT0_Xsr3std12__is_integerIS5_EE7__valueEE6__typeELi0EEXsr3std12__is_integerIS8_EE7__valueEE6__typeES2_S5_(float noundef %0, double noundef %1) #0 comdat {
  %3 = alloca float, align 4
  %4 = alloca double, align 8
  store float %0, ptr %3, align 4
  store double %1, ptr %4, align 8
  %5 = load float, ptr %3, align 4
  %6 = fpext float %5 to double
  %7 = load double, ptr %4, align 8
  %8 = call double @pow(double noundef %6, double noundef %7) #6
  ret double %8
}

; Function Attrs: mustprogress nounwind uwtable
define linkonce_odr noundef float @_ZNK32pxrInternal_v0_24__pxrReserved__8pxr_half4halfcvfEv(ptr noundef nonnull align 2 dereferenceable(2) %0) #0 comdat align 2 {
  %2 = alloca ptr, align 8
  store ptr %0, ptr %2, align 8
  %3 = load ptr, ptr %2, align 8
  %4 = getelementptr inbounds nuw %"class.pxrInternal_v0_24__pxrReserved__::pxr_half::half", ptr %3, i32 0, i32 0
  %5 = load i16, ptr %4, align 2
  %6 = zext i16 %5 to i64
  %7 = getelementptr inbounds [65536 x %"union.pxrInternal_v0_24__pxrReserved__::pxr_half::half::uif"], ptr @_ZN32pxrInternal_v0_24__pxrReserved__8pxr_half4half8_toFloatE, i64 0, i64 %6
  %8 = load float, ptr %7, align 4
  ret float %8
}

; Function Attrs: mustprogress nounwind uwtable
define linkonce_odr noundef nonnull align 2 dereferenceable(2) ptr @_ZNK32pxrInternal_v0_24__pxrReserved__7GfVec4hixEm(ptr noundef nonnull align 2 dereferenceable(8) %0, i64 noundef %1) #0 comdat align 2 {
  %3 = alloca ptr, align 8
  %4 = alloca i64, align 8
  store ptr %0, ptr %3, align 8
  store i64 %1, ptr %4, align 8
  %5 = load ptr, ptr %3, align 8
  %6 = getelementptr inbounds nuw %"class.pxrInternal_v0_24__pxrReserved__::GfVec4h", ptr %5, i32 0, i32 0
  %7 = load i64, ptr %4, align 8
  %8 = getelementptr inbounds [4 x %"class.pxrInternal_v0_24__pxrReserved__::pxr_half::half"], ptr %6, i64 0, i64 %7
  ret ptr %8
}

; Function Attrs: mustprogress uwtable
define i64 @_ZN32pxrInternal_v0_24__pxrReserved__12GfApplyGammaERKNS_7GfVec4hEd(ptr noundef nonnull align 2 dereferenceable(8) %0, double noundef %1) #1 {
  %3 = alloca %"class.pxrInternal_v0_24__pxrReserved__::GfVec4h", align 2
  %4 = alloca ptr, align 8
  %5 = alloca double, align 8
  %6 = alloca %"class.pxrInternal_v0_24__pxrReserved__::pxr_half::half", align 2
  %7 = alloca %"class.pxrInternal_v0_24__pxrReserved__::pxr_half::half", align 2
  %8 = alloca %"class.pxrInternal_v0_24__pxrReserved__::pxr_half::half", align 2
  %9 = alloca %"class.pxrInternal_v0_24__pxrReserved__::pxr_half::half", align 2
  store ptr %0, ptr %4, align 8
  store double %1, ptr %5, align 8
  %10 = load ptr, ptr %4, align 8
  %11 = call noundef nonnull align 2 dereferenceable(2) ptr @_ZNK32pxrInternal_v0_24__pxrReserved__7GfVec4hixEm(ptr noundef nonnull align 2 dereferenceable(8) %10, i64 noundef 0)
  %12 = call noundef float @_ZNK32pxrInternal_v0_24__pxrReserved__8pxr_half4halfcvfEv(ptr noundef nonnull align 2 dereferenceable(2) %11)
  %13 = load double, ptr %5, align 8
  %14 = call noundef double @_ZSt3powIfdEN9__gnu_cxx9__promoteIDTplcvNS1_IT_Xsr3std12__is_integerIS2_EE7__valueEE6__typeELi0EcvNS1_IT0_Xsr3std12__is_integerIS5_EE7__valueEE6__typeELi0EEXsr3std12__is_integerIS8_EE7__valueEE6__typeES2_S5_(float noundef %12, double noundef %13)
  %15 = fptrunc double %14 to float
  call void @_ZN32pxrInternal_v0_24__pxrReserved__8pxr_half4halfC2Ef(ptr noundef nonnull align 2 dereferenceable(2) %6, float noundef %15)
  %16 = load ptr, ptr %4, align 8
  %17 = call noundef nonnull align 2 dereferenceable(2) ptr @_ZNK32pxrInternal_v0_24__pxrReserved__7GfVec4hixEm(ptr noundef nonnull align 2 dereferenceable(8) %16, i64 noundef 1)
  %18 = call noundef float @_ZNK32pxrInternal_v0_24__pxrReserved__8pxr_half4halfcvfEv(ptr noundef nonnull align 2 dereferenceable(2) %17)
  %19 = load double, ptr %5, align 8
  %20 = call noundef double @_ZSt3powIfdEN9__gnu_cxx9__promoteIDTplcvNS1_IT_Xsr3std12__is_integerIS2_EE7__valueEE6__typeELi0EcvNS1_IT0_Xsr3std12__is_integerIS5_EE7__valueEE6__typeELi0EEXsr3std12__is_integerIS8_EE7__valueEE6__typeES2_S5_(float noundef %18, double noundef %19)
  %21 = fptrunc double %20 to float
  call void @_ZN32pxrInternal_v0_24__pxrReserved__8pxr_half4halfC2Ef(ptr noundef nonnull align 2 dereferenceable(2) %7, float noundef %21)
  %22 = load ptr, ptr %4, align 8
  %23 = call noundef nonnull align 2 dereferenceable(2) ptr @_ZNK32pxrInternal_v0_24__pxrReserved__7GfVec4hixEm(ptr noundef nonnull align 2 dereferenceable(8) %22, i64 noundef 2)
  %24 = call noundef float @_ZNK32pxrInternal_v0_24__pxrReserved__8pxr_half4halfcvfEv(ptr noundef nonnull align 2 dereferenceable(2) %23)
  %25 = load double, ptr %5, align 8
  %26 = call noundef double @_ZSt3powIfdEN9__gnu_cxx9__promoteIDTplcvNS1_IT_Xsr3std12__is_integerIS2_EE7__valueEE6__typeELi0EcvNS1_IT0_Xsr3std12__is_integerIS5_EE7__valueEE6__typeELi0EEXsr3std12__is_integerIS8_EE7__valueEE6__typeES2_S5_(float noundef %24, double noundef %25)
  %27 = fptrunc double %26 to float
  call void @_ZN32pxrInternal_v0_24__pxrReserved__8pxr_half4halfC2Ef(ptr noundef nonnull align 2 dereferenceable(2) %8, float noundef %27)
  %28 = load ptr, ptr %4, align 8
  %29 = call noundef nonnull align 2 dereferenceable(2) ptr @_ZNK32pxrInternal_v0_24__pxrReserved__7GfVec4hixEm(ptr noundef nonnull align 2 dereferenceable(8) %28, i64 noundef 3)
  call void @llvm.memcpy.p0.p0.i64(ptr align 2 %9, ptr align 2 %29, i64 2, i1 false)
  %30 = getelementptr inbounds nuw %"class.pxrInternal_v0_24__pxrReserved__::pxr_half::half", ptr %6, i32 0, i32 0
  %31 = load i16, ptr %30, align 2
  %32 = getelementptr inbounds nuw %"class.pxrInternal_v0_24__pxrReserved__::pxr_half::half", ptr %7, i32 0, i32 0
  %33 = load i16, ptr %32, align 2
  %34 = getelementptr inbounds nuw %"class.pxrInternal_v0_24__pxrReserved__::pxr_half::half", ptr %8, i32 0, i32 0
  %35 = load i16, ptr %34, align 2
  %36 = getelementptr inbounds nuw %"class.pxrInternal_v0_24__pxrReserved__::pxr_half::half", ptr %9, i32 0, i32 0
  %37 = load i16, ptr %36, align 2
  call void @_ZN32pxrInternal_v0_24__pxrReserved__7GfVec4hC2ENS_8pxr_half4halfES2_S2_S2_(ptr noundef nonnull align 2 dereferenceable(8) %3, i16 %31, i16 %33, i16 %35, i16 %37)
  %38 = getelementptr inbounds nuw %"class.pxrInternal_v0_24__pxrReserved__::GfVec4h", ptr %3, i32 0, i32 0
  %39 = load i64, ptr %38, align 2
  ret i64 %39
}