; Function Attrs: mustprogress uwtable
define i64 @_ZN32pxrInternal_v0_24__pxrReserved__12GfApplyGammaERKNS_7GfVec4hEd(ptr noundef nonnull readonly align 2 captures(none) dereferenceable(8) %0, double noundef %1) local_unnamed_addr #3 {
  %3 = load i16, ptr %0, align 2
  %4 = zext i16 %3 to i64
  %5 = getelementptr inbounds nuw [65536 x %"union.pxrInternal_v0_24__pxrReserved__::pxr_half::half::uif"], ptr @_ZN32pxrInternal_v0_24__pxrReserved__8pxr_half4half8_toFloatE, i64 0, i64 %4
  %6 = load float, ptr %5, align 4
  %7 = fpext float %6 to double
  %8 = tail call noundef double @pow(double noundef %7, double noundef %1) #8
  %9 = fptrunc double %8 to float
  %10 = bitcast float %9 to i32
  %11 = fcmp oeq float %9, 0.000000e+00
  br i1 %11, label %12, label %15

12:                                               ; preds = %2
  %13 = lshr exact i32 %10, 16
  %14 = trunc nuw i32 %13 to i16
  br label %_ZN32pxrInternal_v0_24__pxrReserved__8pxr_half4halfC2Ef.exit

15:                                               ; preds = %2
  %16 = lshr i32 %10, 23
  %17 = zext nneg i32 %16 to i64
  %18 = getelementptr inbounds nuw [512 x i16], ptr @_ZN32pxrInternal_v0_24__pxrReserved__8pxr_half4half5_eLutE, i64 0, i64 %17
  %19 = load i16, ptr %18, align 2
  %.not.i = icmp eq i16 %19, 0
  br i1 %.not.i, label %29, label %20

20:                                               ; preds = %15
  %21 = and i32 %10, 8388607
  %22 = add nuw nsw i32 %21, 4095
  %23 = lshr i32 %10, 13
  %24 = and i32 %23, 1
  %25 = add nuw nsw i32 %22, %24
  %26 = lshr i32 %25, 13
  %27 = trunc nuw nsw i32 %26 to i16
  %28 = add i16 %19, %27
  br label %_ZN32pxrInternal_v0_24__pxrReserved__8pxr_half4halfC2Ef.exit

29:                                               ; preds = %15
  %30 = tail call noundef signext i16 @_ZN32pxrInternal_v0_24__pxrReserved__8pxr_half4half7convertEi(i32 noundef %10)
  br label %_ZN32pxrInternal_v0_24__pxrReserved__8pxr_half4halfC2Ef.exit

_ZN32pxrInternal_v0_24__pxrReserved__8pxr_half4halfC2Ef.exit: ; preds = %12, %20, %29
  %.sink.i = phi i16 [ %28, %20 ], [ %30, %29 ], [ %14, %12 ]
  %31 = getelementptr inbounds nuw i8, ptr %0, i64 2
  %32 = load i16, ptr %31, align 2
  %33 = zext i16 %32 to i64
  %34 = getelementptr inbounds nuw [65536 x %"union.pxrInternal_v0_24__pxrReserved__::pxr_half::half::uif"], ptr @_ZN32pxrInternal_v0_24__pxrReserved__8pxr_half4half8_toFloatE, i64 0, i64 %33
  %35 = load float, ptr %34, align 4
  %36 = fpext float %35 to double
  %37 = tail call noundef double @pow(double noundef %36, double noundef %1) #8
  %38 = fptrunc double %37 to float
  %39 = bitcast float %38 to i32
  %40 = fcmp oeq float %38, 0.000000e+00
  br i1 %40, label %41, label %44

41:                                               ; preds = %_ZN32pxrInternal_v0_24__pxrReserved__8pxr_half4halfC2Ef.exit
  %42 = lshr exact i32 %39, 16
  %43 = trunc nuw i32 %42 to i16
  br label %_ZN32pxrInternal_v0_24__pxrReserved__8pxr_half4halfC2Ef.exit9

44:                                               ; preds = %_ZN32pxrInternal_v0_24__pxrReserved__8pxr_half4halfC2Ef.exit
  %45 = lshr i32 %39, 23
  %46 = zext nneg i32 %45 to i64
  %47 = getelementptr inbounds nuw [512 x i16], ptr @_ZN32pxrInternal_v0_24__pxrReserved__8pxr_half4half5_eLutE, i64 0, i64 %46
  %48 = load i16, ptr %47, align 2
  %.not.i7 = icmp eq i16 %48, 0
  br i1 %.not.i7, label %58, label %49

49:                                               ; preds = %44
  %50 = and i32 %39, 8388607
  %51 = add nuw nsw i32 %50, 4095
  %52 = lshr i32 %39, 13
  %53 = and i32 %52, 1
  %54 = add nuw nsw i32 %51, %53
  %55 = lshr i32 %54, 13
  %56 = trunc nuw nsw i32 %55 to i16
  %57 = add i16 %48, %56
  br label %_ZN32pxrInternal_v0_24__pxrReserved__8pxr_half4halfC2Ef.exit9

58:                                               ; preds = %44
  %59 = tail call noundef signext i16 @_ZN32pxrInternal_v0_24__pxrReserved__8pxr_half4half7convertEi(i32 noundef %39)
  br label %_ZN32pxrInternal_v0_24__pxrReserved__8pxr_half4halfC2Ef.exit9

_ZN32pxrInternal_v0_24__pxrReserved__8pxr_half4halfC2Ef.exit9: ; preds = %41, %49, %58
  %.sink.i8 = phi i16 [ %57, %49 ], [ %59, %58 ], [ %43, %41 ]
  %60 = getelementptr inbounds nuw i8, ptr %0, i64 4
  %61 = load i16, ptr %60, align 2
  %62 = zext i16 %61 to i64
  %63 = getelementptr inbounds nuw [65536 x %"union.pxrInternal_v0_24__pxrReserved__::pxr_half::half::uif"], ptr @_ZN32pxrInternal_v0_24__pxrReserved__8pxr_half4half8_toFloatE, i64 0, i64 %62
  %64 = load float, ptr %63, align 4
  %65 = fpext float %64 to double
  %66 = tail call noundef double @pow(double noundef %65, double noundef %1) #8
  %67 = fptrunc double %66 to float
  %68 = bitcast float %67 to i32
  %69 = fcmp oeq float %67, 0.000000e+00
  br i1 %69, label %70, label %73

70:                                               ; preds = %_ZN32pxrInternal_v0_24__pxrReserved__8pxr_half4halfC2Ef.exit9
  %71 = lshr exact i32 %68, 16
  %72 = trunc nuw i32 %71 to i16
  br label %_ZN32pxrInternal_v0_24__pxrReserved__8pxr_half4halfC2Ef.exit12

73:                                               ; preds = %_ZN32pxrInternal_v0_24__pxrReserved__8pxr_half4halfC2Ef.exit9
  %74 = lshr i32 %68, 23
  %75 = zext nneg i32 %74 to i64
  %76 = getelementptr inbounds nuw [512 x i16], ptr @_ZN32pxrInternal_v0_24__pxrReserved__8pxr_half4half5_eLutE, i64 0, i64 %75
  %77 = load i16, ptr %76, align 2
  %.not.i10 = icmp eq i16 %77, 0
  br i1 %.not.i10, label %87, label %78

78:                                               ; preds = %73
  %79 = and i32 %68, 8388607
  %80 = add nuw nsw i32 %79, 4095
  %81 = lshr i32 %68, 13
  %82 = and i32 %81, 1
  %83 = add nuw nsw i32 %80, %82
  %84 = lshr i32 %83, 13
  %85 = trunc nuw nsw i32 %84 to i16
  %86 = add i16 %77, %85
  br label %_ZN32pxrInternal_v0_24__pxrReserved__8pxr_half4halfC2Ef.exit12

87:                                               ; preds = %73
  %88 = tail call noundef signext i16 @_ZN32pxrInternal_v0_24__pxrReserved__8pxr_half4half7convertEi(i32 noundef %68)
  br label %_ZN32pxrInternal_v0_24__pxrReserved__8pxr_half4halfC2Ef.exit12

_ZN32pxrInternal_v0_24__pxrReserved__8pxr_half4halfC2Ef.exit12: ; preds = %70, %78, %87
  %.sink.i11 = phi i16 [ %86, %78 ], [ %88, %87 ], [ %72, %70 ]
  %89 = getelementptr inbounds nuw i8, ptr %0, i64 6
  %.sroa.0.0.copyload = load i16, ptr %89, align 2
  %.sroa.4.0.insert.ext = zext i16 %.sroa.0.0.copyload to i64
  %.sroa.4.0.insert.shift = shl nuw i64 %.sroa.4.0.insert.ext, 48
  %.sroa.3.0.insert.ext = zext i16 %.sink.i11 to i64
  %.sroa.3.0.insert.shift = shl nuw nsw i64 %.sroa.3.0.insert.ext, 32
  %.sroa.3.0.insert.insert = or disjoint i64 %.sroa.4.0.insert.shift, %.sroa.3.0.insert.shift
  %.sroa.2.0.insert.ext = zext i16 %.sink.i8 to i64
  %.sroa.2.0.insert.shift = shl nuw nsw i64 %.sroa.2.0.insert.ext, 16
  %.sroa.2.0.insert.insert = or disjoint i64 %.sroa.3.0.insert.insert, %.sroa.2.0.insert.shift
  %.sroa.015.0.insert.ext = zext i16 %.sink.i to i64
  %.sroa.015.0.insert.insert = or disjoint i64 %.sroa.2.0.insert.insert, %.sroa.015.0.insert.ext
  ret i64 %.sroa.015.0.insert.insert
}